; Function Attrs: mustprogress nofree norecurse nosync nounwind sspstrong willreturn memory(argmem: readwrite) uwtable
define internal range(i64 4, 9) i64 @fun_so_to_utf_32(ptr noundef captures(none) %0, ptr noundef readonly captures(none) %1, i64 %2, ptr noundef writeonly captures(none) initializes((0, 3)) %3, i64 %4) #2 {
  %6 = load i8, ptr %0, align 1, !tbaa !6
  %7 = icmp eq i8 %6, 0
  br i1 %7, label %8, label %76

8:                                                ; preds = %5
  %9 = getelementptr inbounds nuw i8, ptr %3, i64 1
  store i8 0, ptr %3, align 1, !tbaa !6
  %10 = getelementptr inbounds nuw i8, ptr %3, i64 2
  store i8 0, ptr %9, align 1, !tbaa !6
  %11 = getelementptr inbounds nuw i8, ptr %3, i64 3
  store i8 -2, ptr %10, align 1, !tbaa !6
  %12 = getelementptr inbounds nuw i8, ptr %3, i64 4
  store i8 -1, ptr %11, align 1, !tbaa !6
  store i8 1, ptr %0, align 1, !tbaa !6
  store i8 0, ptr %12, align 1, !tbaa !6
  %13 = load i8, ptr %1, align 1, !tbaa !6
  %14 = zext i8 %13 to i32
  %.not.i = icmp sgt i8 %13, -1
  br i1 %.not.i, label %15, label %19

15:                                               ; preds = %8
  %16 = getelementptr inbounds nuw i8, ptr %3, i64 6
  store i8 0, ptr %16, align 1, !tbaa !6
  %17 = getelementptr inbounds nuw i8, ptr %3, i64 5
  store i8 0, ptr %17, align 1, !tbaa !6
  %18 = load i8, ptr %1, align 1, !tbaa !6
  br label %fun_so_to_utf_32be.exit

19:                                               ; preds = %8
  %20 = and i32 %14, 224
  %21 = icmp eq i32 %20, 192
  br i1 %21, label %22, label %34

22:                                               ; preds = %19
  %23 = getelementptr inbounds nuw i8, ptr %3, i64 5
  store i8 0, ptr %23, align 1, !tbaa !6
  %24 = load i8, ptr %1, align 1, !tbaa !6
  %25 = lshr i8 %24, 2
  %26 = and i8 %25, 7
  %27 = getelementptr inbounds nuw i8, ptr %3, i64 6
  store i8 %26, ptr %27, align 1, !tbaa !6
  %28 = load i8, ptr %1, align 1, !tbaa !6
  %29 = shl i8 %28, 6
  %30 = getelementptr inbounds nuw i8, ptr %1, i64 1
  %31 = load i8, ptr %30, align 1, !tbaa !6
  %32 = and i8 %31, 63
  %33 = or disjoint i8 %32, %29
  br label %fun_so_to_utf_32be.exit

34:                                               ; preds = %19
  %35 = and i32 %14, 240
  %36 = icmp eq i32 %35, 224
  br i1 %36, label %37, label %53

37:                                               ; preds = %34
  %38 = getelementptr inbounds nuw i8, ptr %3, i64 5
  store i8 0, ptr %38, align 1, !tbaa !6
  %39 = load i8, ptr %1, align 1, !tbaa !6
  %40 = shl i8 %39, 4
  %41 = getelementptr inbounds nuw i8, ptr %1, i64 1
  %42 = load i8, ptr %41, align 1, !tbaa !6
  %43 = lshr i8 %42, 2
  %44 = xor i8 %43, 32
  %45 = or i8 %44, %40
  %46 = getelementptr inbounds nuw i8, ptr %3, i64 6
  store i8 %45, ptr %46, align 1, !tbaa !6
  %47 = load i8, ptr %41, align 1, !tbaa !6
  %48 = shl i8 %47, 6
  %49 = getelementptr inbounds nuw i8, ptr %1, i64 2
  %50 = load i8, ptr %49, align 1, !tbaa !6
  %51 = xor i8 %50, -128
  %52 = or i8 %51, %48
  br label %fun_so_to_utf_32be.exit

53:                                               ; preds = %34
  %54 = shl i8 %13, 2
  %55 = and i8 %54, 28
  %56 = getelementptr inbounds nuw i8, ptr %1, i64 1
  %57 = load i8, ptr %56, align 1, !tbaa !6
  %58 = lshr i8 %57, 4
  %59 = and i8 %58, 3
  %60 = or disjoint i8 %59, %55
  %61 = getelementptr inbounds nuw i8, ptr %3, i64 5
  store i8 %60, ptr %61, align 1, !tbaa !6
  %62 = load i8, ptr %56, align 1, !tbaa !6
  %63 = shl i8 %62, 4
  %64 = getelementptr inbounds nuw i8, ptr %1, i64 2
  %65 = load i8, ptr %64, align 1, !tbaa !6
  %66 = lshr i8 %65, 2
  %67 = and i8 %66, 15
  %68 = or disjoint i8 %67, %63
  %69 = getelementptr inbounds nuw i8, ptr %3, i64 6
  store i8 %68, ptr %69, align 1, !tbaa !6
  %70 = load i8, ptr %64, align 1, !tbaa !6
  %71 = shl i8 %70, 6
  %72 = getelementptr inbounds nuw i8, ptr %1, i64 3
  %73 = load i8, ptr %72, align 1, !tbaa !6
  %74 = and i8 %73, 63
  %75 = or disjoint i8 %74, %71
  br label %fun_so_to_utf_32be.exit

76:                                               ; preds = %5
  store i8 0, ptr %3, align 1, !tbaa !6
  %77 = load i8, ptr %1, align 1, !tbaa !6
  %78 = zext i8 %77 to i32
  %.not.i17 = icmp sgt i8 %77, -1
  br i1 %.not.i17, label %79, label %83

79:                                               ; preds = %76
  %80 = getelementptr inbounds nuw i8, ptr %3, i64 2
  store i8 0, ptr %80, align 1, !tbaa !6
  %81 = getelementptr inbounds nuw i8, ptr %3, i64 1
  store i8 0, ptr %81, align 1, !tbaa !6
  %82 = load i8, ptr %1, align 1, !tbaa !6
  br label %fun_so_to_utf_32be.exit

83:                                               ; preds = %76
  %84 = and i32 %78, 224
  %85 = icmp eq i32 %84, 192
  br i1 %85, label %86, label %98

86:                                               ; preds = %83
  %87 = getelementptr inbounds nuw i8, ptr %3, i64 1
  store i8 0, ptr %87, align 1, !tbaa !6
  %88 = load i8, ptr %1, align 1, !tbaa !6
  %89 = lshr i8 %88, 2
  %90 = and i8 %89, 7
  %91 = getelementptr inbounds nuw i8, ptr %3, i64 2
  store i8 %90, ptr %91, align 1, !tbaa !6
  %92 = load i8, ptr %1, align 1, !tbaa !6
  %93 = shl i8 %92, 6
  %94 = getelementptr inbounds nuw i8, ptr %1, i64 1
  %95 = load i8, ptr %94, align 1, !tbaa !6
  %96 = and i8 %95, 63
  %97 = or disjoint i8 %96, %93
  br label %fun_so_to_utf_32be.exit

98:                                               ; preds = %83
  %99 = and i32 %78, 240
  %100 = icmp eq i32 %99, 224
  br i1 %100, label %101, label %117

101:                                              ; preds = %98
  %102 = getelementptr inbounds nuw i8, ptr %3, i64 1
  store i8 0, ptr %102, align 1, !tbaa !6
  %103 = load i8, ptr %1, align 1, !tbaa !6
  %104 = shl i8 %103, 4
  %105 = getelementptr inbounds nuw i8, ptr %1, i64 1
  %106 = load i8, ptr %105, align 1, !tbaa !6
  %107 = lshr i8 %106, 2
  %108 = xor i8 %107, 32
  %109 = or i8 %108, %104
  %110 = getelementptr inbounds nuw i8, ptr %3, i64 2
  store i8 %109, ptr %110, align 1, !tbaa !6
  %111 = load i8, ptr %105, align 1, !tbaa !6
  %112 = shl i8 %111, 6
  %113 = getelementptr inbounds nuw i8, ptr %1, i64 2
  %114 = load i8, ptr %113, align 1, !tbaa !6
  %115 = xor i8 %114, -128
  %116 = or i8 %115, %112
  br label %fun_so_to_utf_32be.exit

117:                                              ; preds = %98
  %118 = shl i8 %77, 2
  %119 = and i8 %118, 28
  %120 = getelementptr inbounds nuw i8, ptr %1, i64 1
  %121 = load i8, ptr %120, align 1, !tbaa !6
  %122 = lshr i8 %121, 4
  %123 = and i8 %122, 3
  %124 = or disjoint i8 %123, %119
  %125 = getelementptr inbounds nuw i8, ptr %3, i64 1
  store i8 %124, ptr %125, align 1, !tbaa !6
  %126 = load i8, ptr %120, align 1, !tbaa !6
  %127 = shl i8 %126, 4
  %128 = getelementptr inbounds nuw i8, ptr %1, i64 2
  %129 = load i8, ptr %128, align 1, !tbaa !6
  %130 = lshr i8 %129, 2
  %131 = and i8 %130, 15
  %132 = or disjoint i8 %131, %127
  %133 = getelementptr inbounds nuw i8, ptr %3, i64 2
  store i8 %132, ptr %133, align 1, !tbaa !6
  %134 = load i8, ptr %128, align 1, !tbaa !6
  %135 = shl i8 %134, 6
  %136 = getelementptr inbounds nuw i8, ptr %1, i64 3
  %137 = load i8, ptr %136, align 1, !tbaa !6
  %138 = and i8 %137, 63
  %139 = or disjoint i8 %138, %135
  br label %fun_so_to_utf_32be.exit

fun_so_to_utf_32be.exit:                          ; preds = %117, %101, %86, %79, %53, %37, %22, %15
  %.sink20 = phi i64 [ 7, %15 ], [ 7, %22 ], [ 7, %37 ], [ 7, %53 ], [ 3, %79 ], [ 3, %86 ], [ 3, %101 ], [ 3, %117 ]
  %.sink.i18.sink = phi i8 [ %18, %15 ], [ %33, %22 ], [ %52, %37 ], [ %75, %53 ], [ %82, %79 ], [ %97, %86 ], [ %116, %101 ], [ %139, %117 ]
  %.0 = phi i64 [ 8, %15 ], [ 8, %22 ], [ 8, %37 ], [ 8, %53 ], [ 4, %79 ], [ 4, %86 ], [ 4, %101 ], [ 4, %117 ]
  %140 = getelementptr inbounds nuw i8, ptr %3, i64 %.sink20
  store i8 %.sink.i18.sink, ptr %140, align 1, !tbaa !6
  ret i64 %.0
}